target datalayout = "e-m:e-p270:32:32-p271:32:32-p272:64:64-i64:64-i128:128-f80:128-n8:16:32:64-S128"
target triple = "x86_64-pc-linux-gnu"

%struct.lean_object = type { i32, i32 }

@l_Lean_Elab_Tactic_BVDecide_Frontend_Normalize_bv__and___lambda__5___closed__1 = internal global ptr null, align 8
@l_Lean_Elab_Tactic_BVDecide_Frontend_Normalize_neg__eq__not__add___closed__1 = internal global ptr null, align 8
@l_Lean_Elab_Tactic_BVDecide_Frontend_Normalize_neg__eq__not__add___closed__4 = internal global ptr null, align 8

; Function Attrs: alwaysinline nounwind uwtable
define internal void @lean_dec_ref(ptr noundef %0) #0 {
  %2 = alloca ptr, align 8
  store ptr %0, ptr %2, align 8, !tbaa !4
  %3 = load ptr, ptr %2, align 8, !tbaa !4
  %4 = getelementptr inbounds nuw %struct.lean_object, ptr %3, i32 0, i32 0
  %5 = load i32, ptr %4, align 4, !tbaa !13
  %6 = icmp sgt i32 %5, 1
  %7 = zext i1 %6 to i32
  %8 = sext i32 %7 to i64
  %9 = call i64 @llvm.expect.i64(i64 %8, i64 1)
  %10 = icmp ne i64 %9, 0
  br i1 %10, label %11, label %16

11:                                               ; preds = %1
  %12 = load ptr, ptr %2, align 8, !tbaa !4
  %13 = getelementptr inbounds nuw %struct.lean_object, ptr %12, i32 0, i32 0
  %14 = load i32, ptr %13, align 4, !tbaa !13
  %15 = add i32 %14, -1
  store i32 %15, ptr %13, align 4, !tbaa !13
  br label %24

16:                                               ; preds = %1
  %17 = load ptr, ptr %2, align 8, !tbaa !4
  %18 = getelementptr inbounds nuw %struct.lean_object, ptr %17, i32 0, i32 0
  %19 = load i32, ptr %18, align 4, !tbaa !13
  %20 = icmp ne i32 %19, 0
  br i1 %20, label %21, label %23

21:                                               ; preds = %16
  %22 = load ptr, ptr %2, align 8, !tbaa !4
  call void @lean_dec_ref_cold(ptr noundef %22)
  br label %23

23:                                               ; preds = %21, %16
  br label %24

24:                                               ; preds = %23, %11
  ret void
}

; Function Attrs: alwaysinline nounwind uwtable
define internal zeroext i1 @lean_is_scalar(ptr noundef %0) #0 {
  %2 = alloca ptr, align 8
  store ptr %0, ptr %2, align 8, !tbaa !4
  %3 = load ptr, ptr %2, align 8, !tbaa !4
  %4 = ptrtoint ptr %3 to i64
  %5 = and i64 %4, 1
  %6 = icmp eq i64 %5, 1
  ret i1 %6
}

; Function Attrs: inlinehint nounwind uwtable
define internal ptr @lean_box(i64 noundef %0) #4 {
  %2 = alloca i64, align 8
  store i64 %0, ptr %2, align 8, !tbaa !8
  %3 = load i64, ptr %2, align 8, !tbaa !8
  %4 = shl i64 %3, 1
  %5 = or i64 %4, 1
  %6 = inttoptr i64 %5 to ptr
  ret ptr %6
}

; Function Attrs: alwaysinline nounwind uwtable
define internal void @lean_dec(ptr noundef %0) #0 {
  %2 = alloca ptr, align 8
  store ptr %0, ptr %2, align 8, !tbaa !4
  %3 = load ptr, ptr %2, align 8, !tbaa !4
  %4 = call zeroext i1 @lean_is_scalar(ptr noundef %3)
  br i1 %4, label %7, label %5

5:                                                ; preds = %1
  %6 = load ptr, ptr %2, align 8, !tbaa !4
  call void @lean_dec_ref(ptr noundef %6)
  br label %7

7:                                                ; preds = %5, %1
  ret void
}

; Function Attrs: nounwind uwtable
define ptr @l_Lean_Elab_Tactic_BVDecide_Frontend_Normalize_neg__eq__not__add(ptr noundef %0, ptr noundef %1, ptr noundef %2, ptr noundef %3, ptr noundef %4, ptr noundef %5, ptr noundef %6, ptr noundef %7, ptr noundef %8) #1 {
  %10 = alloca ptr, align 8
  %11 = alloca ptr, align 8
  %12 = alloca ptr, align 8
  %13 = alloca ptr, align 8
  %14 = alloca ptr, align 8
  %15 = alloca ptr, align 8
  %16 = alloca ptr, align 8
  %17 = alloca ptr, align 8
  %18 = alloca ptr, align 8
  %19 = alloca ptr, align 8
  %20 = alloca ptr, align 8
  %21 = alloca ptr, align 8
  %22 = alloca ptr, align 8
  %23 = alloca i8, align 1
  %24 = alloca ptr, align 8
  %25 = alloca ptr, align 8
  %26 = alloca i32, align 4
  %27 = alloca ptr, align 8
  %28 = alloca ptr, align 8
  %29 = alloca i8, align 1
  %30 = alloca ptr, align 8
  %31 = alloca ptr, align 8
  %32 = alloca ptr, align 8
  %33 = alloca i8, align 1
  %34 = alloca ptr, align 8
  %35 = alloca ptr, align 8
  %36 = alloca ptr, align 8
  %37 = alloca ptr, align 8
  %38 = alloca ptr, align 8
  %39 = alloca i8, align 1
  %40 = alloca ptr, align 8
  %41 = alloca ptr, align 8
  %42 = alloca ptr, align 8
  store ptr %0, ptr %11, align 8, !tbaa !4
  store ptr %1, ptr %12, align 8, !tbaa !4
  store ptr %2, ptr %13, align 8, !tbaa !4
  store ptr %3, ptr %14, align 8, !tbaa !4
  store ptr %4, ptr %15, align 8, !tbaa !4
  store ptr %5, ptr %16, align 8, !tbaa !4
  store ptr %6, ptr %17, align 8, !tbaa !4
  store ptr %7, ptr %18, align 8, !tbaa !4
  store ptr %8, ptr %19, align 8, !tbaa !4
  br label %43

43:                                               ; preds = %9
  call void @llvm.lifetime.start.p0(i64 8, ptr %20) #7
  call void @llvm.lifetime.start.p0(i64 8, ptr %21) #7
  call void @llvm.lifetime.start.p0(i64 8, ptr %22) #7
  call void @llvm.lifetime.start.p0(i64 1, ptr %23) #7
  %44 = load ptr, ptr @l_Lean_Elab_Tactic_BVDecide_Frontend_Normalize_neg__eq__not__add___closed__1, align 8, !tbaa !4
  store ptr %44, ptr %20, align 8, !tbaa !4
  %45 = load ptr, ptr @l_Lean_Elab_Tactic_BVDecide_Frontend_Normalize_bv__and___lambda__5___closed__1, align 8, !tbaa !4
  store ptr %45, ptr %21, align 8, !tbaa !4
  %46 = load ptr, ptr %11, align 8, !tbaa !4
  %47 = call ptr @l_Lean_Expr_cleanupAnnotations(ptr noundef %46)
  store ptr %47, ptr %22, align 8, !tbaa !4
  %48 = load ptr, ptr %22, align 8, !tbaa !4
  %49 = call zeroext i8 @l_Lean_Expr_isApp(ptr noundef %48)
  store i8 %49, ptr %23, align 1, !tbaa !10
  %50 = load i8, ptr %23, align 1, !tbaa !10
  %51 = zext i8 %50 to i32
  %52 = icmp eq i32 %51, 0
  br i1 %52, label %53, label %68

53:                                               ; preds = %43
  call void @llvm.lifetime.start.p0(i64 8, ptr %24) #7
  call void @llvm.lifetime.start.p0(i64 8, ptr %25) #7
  %54 = load ptr, ptr %22, align 8, !tbaa !4
  call void @lean_dec(ptr noundef %54)
  %55 = call ptr @lean_box(i64 noundef 0)
  store ptr %55, ptr %24, align 8, !tbaa !4
  %56 = load ptr, ptr %21, align 8, !tbaa !4
  %57 = load ptr, ptr %24, align 8, !tbaa !4
  %58 = load ptr, ptr %12, align 8, !tbaa !4
  %59 = load ptr, ptr %13, align 8, !tbaa !4
  %60 = load ptr, ptr %14, align 8, !tbaa !4
  %61 = load ptr, ptr %15, align 8, !tbaa !4
  %62 = load ptr, ptr %16, align 8, !tbaa !4
  %63 = load ptr, ptr %17, align 8, !tbaa !4
  %64 = load ptr, ptr %18, align 8, !tbaa !4
  %65 = load ptr, ptr %19, align 8, !tbaa !4
  %66 = call ptr @lean_apply_9(ptr noundef %56, ptr noundef %57, ptr noundef %58, ptr noundef %59, ptr noundef %60, ptr noundef %61, ptr noundef %62, ptr noundef %63, ptr noundef %64, ptr noundef %65)
  store ptr %66, ptr %25, align 8, !tbaa !4
  %67 = load ptr, ptr %25, align 8, !tbaa !4
  store ptr %67, ptr %10, align 8
  store i32 1, ptr %26, align 4
  call void @llvm.lifetime.end.p0(i64 8, ptr %25) #7
  call void @llvm.lifetime.end.p0(i64 8, ptr %24) #7
  br label %169

68:                                               ; preds = %43
  call void @llvm.lifetime.start.p0(i64 8, ptr %27) #7
  call void @llvm.lifetime.start.p0(i64 8, ptr %28) #7
  call void @llvm.lifetime.start.p0(i64 1, ptr %29) #7
  %69 = load ptr, ptr %22, align 8, !tbaa !4
  %70 = call ptr @lean_box(i64 noundef 0)
  %71 = call ptr @l_Lean_Expr_appArg(ptr noundef %69, ptr noundef %70)
  store ptr %71, ptr %27, align 8, !tbaa !4
  %72 = load ptr, ptr %22, align 8, !tbaa !4
  %73 = call ptr @lean_box(i64 noundef 0)
  %74 = call ptr @l_Lean_Expr_appFnCleanup(ptr noundef %72, ptr noundef %73)
  store ptr %74, ptr %28, align 8, !tbaa !4
  %75 = load ptr, ptr %28, align 8, !tbaa !4
  %76 = call zeroext i8 @l_Lean_Expr_isApp(ptr noundef %75)
  store i8 %76, ptr %29, align 1, !tbaa !10
  %77 = load i8, ptr %29, align 1, !tbaa !10
  %78 = zext i8 %77 to i32
  %79 = icmp eq i32 %78, 0
  br i1 %79, label %80, label %96

80:                                               ; preds = %68
  call void @llvm.lifetime.start.p0(i64 8, ptr %30) #7
  call void @llvm.lifetime.start.p0(i64 8, ptr %31) #7
  %81 = load ptr, ptr %28, align 8, !tbaa !4
  call void @lean_dec(ptr noundef %81)
  %82 = load ptr, ptr %27, align 8, !tbaa !4
  call void @lean_dec(ptr noundef %82)
  %83 = call ptr @lean_box(i64 noundef 0)
  store ptr %83, ptr %30, align 8, !tbaa !4
  %84 = load ptr, ptr %21, align 8, !tbaa !4
  %85 = load ptr, ptr %30, align 8, !tbaa !4
  %86 = load ptr, ptr %12, align 8, !tbaa !4
  %87 = load ptr, ptr %13, align 8, !tbaa !4
  %88 = load ptr, ptr %14, align 8, !tbaa !4
  %89 = load ptr, ptr %15, align 8, !tbaa !4
  %90 = load ptr, ptr %16, align 8, !tbaa !4
  %91 = load ptr, ptr %17, align 8, !tbaa !4
  %92 = load ptr, ptr %18, align 8, !tbaa !4
  %93 = load ptr, ptr %19, align 8, !tbaa !4
  %94 = call ptr @lean_apply_9(ptr noundef %84, ptr noundef %85, ptr noundef %86, ptr noundef %87, ptr noundef %88, ptr noundef %89, ptr noundef %90, ptr noundef %91, ptr noundef %92, ptr noundef %93)
  store ptr %94, ptr %31, align 8, !tbaa !4
  %95 = load ptr, ptr %31, align 8, !tbaa !4
  store ptr %95, ptr %10, align 8
  store i32 1, ptr %26, align 4
  call void @llvm.lifetime.end.p0(i64 8, ptr %31) #7
  call void @llvm.lifetime.end.p0(i64 8, ptr %30) #7
  br label %168

96:                                               ; preds = %68
  call void @llvm.lifetime.start.p0(i64 8, ptr %32) #7
  call void @llvm.lifetime.start.p0(i64 1, ptr %33) #7
  %97 = load ptr, ptr %28, align 8, !tbaa !4
  %98 = call ptr @lean_box(i64 noundef 0)
  %99 = call ptr @l_Lean_Expr_appFnCleanup(ptr noundef %97, ptr noundef %98)
  store ptr %99, ptr %32, align 8, !tbaa !4
  %100 = load ptr, ptr %32, align 8, !tbaa !4
  %101 = call zeroext i8 @l_Lean_Expr_isApp(ptr noundef %100)
  store i8 %101, ptr %33, align 1, !tbaa !10
  %102 = load i8, ptr %33, align 1, !tbaa !10
  %103 = zext i8 %102 to i32
  %104 = icmp eq i32 %103, 0
  br i1 %104, label %105, label %121

105:                                              ; preds = %96
  call void @llvm.lifetime.start.p0(i64 8, ptr %34) #7
  call void @llvm.lifetime.start.p0(i64 8, ptr %35) #7
  %106 = load ptr, ptr %32, align 8, !tbaa !4
  call void @lean_dec(ptr noundef %106)
  %107 = load ptr, ptr %27, align 8, !tbaa !4
  call void @lean_dec(ptr noundef %107)
  %108 = call ptr @lean_box(i64 noundef 0)
  store ptr %108, ptr %34, align 8, !tbaa !4
  %109 = load ptr, ptr %21, align 8, !tbaa !4
  %110 = load ptr, ptr %34, align 8, !tbaa !4
  %111 = load ptr, ptr %12, align 8, !tbaa !4
  %112 = load ptr, ptr %13, align 8, !tbaa !4
  %113 = load ptr, ptr %14, align 8, !tbaa !4
  %114 = load ptr, ptr %15, align 8, !tbaa !4
  %115 = load ptr, ptr %16, align 8, !tbaa !4
  %116 = load ptr, ptr %17, align 8, !tbaa !4
  %117 = load ptr, ptr %18, align 8, !tbaa !4
  %118 = load ptr, ptr %19, align 8, !tbaa !4
  %119 = call ptr @lean_apply_9(ptr noundef %109, ptr noundef %110, ptr noundef %111, ptr noundef %112, ptr noundef %113, ptr noundef %114, ptr noundef %115, ptr noundef %116, ptr noundef %117, ptr noundef %118)
  store ptr %119, ptr %35, align 8, !tbaa !4
  %120 = load ptr, ptr %35, align 8, !tbaa !4
  store ptr %120, ptr %10, align 8
  store i32 1, ptr %26, align 4
  call void @llvm.lifetime.end.p0(i64 8, ptr %35) #7
  call void @llvm.lifetime.end.p0(i64 8, ptr %34) #7
  br label %167

121:                                              ; preds = %96
  call void @llvm.lifetime.start.p0(i64 8, ptr %36) #7
  call void @llvm.lifetime.start.p0(i64 8, ptr %37) #7
  call void @llvm.lifetime.start.p0(i64 8, ptr %38) #7
  call void @llvm.lifetime.start.p0(i64 1, ptr %39) #7
  %122 = load ptr, ptr %32, align 8, !tbaa !4
  %123 = call ptr @lean_box(i64 noundef 0)
  %124 = call ptr @l_Lean_Expr_appArg(ptr noundef %122, ptr noundef %123)
  store ptr %124, ptr %36, align 8, !tbaa !4
  %125 = load ptr, ptr %32, align 8, !tbaa !4
  %126 = call ptr @lean_box(i64 noundef 0)
  %127 = call ptr @l_Lean_Expr_appFnCleanup(ptr noundef %125, ptr noundef %126)
  store ptr %127, ptr %37, align 8, !tbaa !4
  %128 = load ptr, ptr @l_Lean_Elab_Tactic_BVDecide_Frontend_Normalize_neg__eq__not__add___closed__4, align 8, !tbaa !4
  store ptr %128, ptr %38, align 8, !tbaa !4
  %129 = load ptr, ptr %37, align 8, !tbaa !4
  %130 = load ptr, ptr %38, align 8, !tbaa !4
  %131 = call zeroext i8 @l_Lean_Expr_isConstOf(ptr noundef %129, ptr noundef %130)
  store i8 %131, ptr %39, align 1, !tbaa !10
  %132 = load ptr, ptr %37, align 8, !tbaa !4
  call void @lean_dec(ptr noundef %132)
  %133 = load i8, ptr %39, align 1, !tbaa !10
  %134 = zext i8 %133 to i32
  %135 = icmp eq i32 %134, 0
  br i1 %135, label %136, label %152

136:                                              ; preds = %121
  call void @llvm.lifetime.start.p0(i64 8, ptr %40) #7
  call void @llvm.lifetime.start.p0(i64 8, ptr %41) #7
  %137 = load ptr, ptr %36, align 8, !tbaa !4
  call void @lean_dec(ptr noundef %137)
  %138 = load ptr, ptr %27, align 8, !tbaa !4
  call void @lean_dec(ptr noundef %138)
  %139 = call ptr @lean_box(i64 noundef 0)
  store ptr %139, ptr %40, align 8, !tbaa !4
  %140 = load ptr, ptr %21, align 8, !tbaa !4
  %141 = load ptr, ptr %40, align 8, !tbaa !4
  %142 = load ptr, ptr %12, align 8, !tbaa !4
  %143 = load ptr, ptr %13, align 8, !tbaa !4
  %144 = load ptr, ptr %14, align 8, !tbaa !4
  %145 = load ptr, ptr %15, align 8, !tbaa !4
  %146 = load ptr, ptr %16, align 8, !tbaa !4
  %147 = load ptr, ptr %17, align 8, !tbaa !4
  %148 = load ptr, ptr %18, align 8, !tbaa !4
  %149 = load ptr, ptr %19, align 8, !tbaa !4
  %150 = call ptr @lean_apply_9(ptr noundef %140, ptr noundef %141, ptr noundef %142, ptr noundef %143, ptr noundef %144, ptr noundef %145, ptr noundef %146, ptr noundef %147, ptr noundef %148, ptr noundef %149)
  store ptr %150, ptr %41, align 8, !tbaa !4
  %151 = load ptr, ptr %41, align 8, !tbaa !4
  store ptr %151, ptr %10, align 8
  store i32 1, ptr %26, align 4
  call void @llvm.lifetime.end.p0(i64 8, ptr %41) #7
  call void @llvm.lifetime.end.p0(i64 8, ptr %40) #7
  br label %166

152:                                              ; preds = %121
  call void @llvm.lifetime.start.p0(i64 8, ptr %42) #7
  %153 = load ptr, ptr %20, align 8, !tbaa !4
  %154 = load ptr, ptr %36, align 8, !tbaa !4
  %155 = load ptr, ptr %27, align 8, !tbaa !4
  %156 = load ptr, ptr %12, align 8, !tbaa !4
  %157 = load ptr, ptr %13, align 8, !tbaa !4
  %158 = load ptr, ptr %14, align 8, !tbaa !4
  %159 = load ptr, ptr %15, align 8, !tbaa !4
  %160 = load ptr, ptr %16, align 8, !tbaa !4
  %161 = load ptr, ptr %17, align 8, !tbaa !4
  %162 = load ptr, ptr %18, align 8, !tbaa !4
  %163 = load ptr, ptr %19, align 8, !tbaa !4
  %164 = call ptr @lean_apply_10(ptr noundef %153, ptr noundef %154, ptr noundef %155, ptr noundef %156, ptr noundef %157, ptr noundef %158, ptr noundef %159, ptr noundef %160, ptr noundef %161, ptr noundef %162, ptr noundef %163)
  store ptr %164, ptr %42, align 8, !tbaa !4
  %165 = load ptr, ptr %42, align 8, !tbaa !4
  store ptr %165, ptr %10, align 8
  store i32 1, ptr %26, align 4
  call void @llvm.lifetime.end.p0(i64 8, ptr %42) #7
  br label %166

166:                                              ; preds = %152, %136
  call void @llvm.lifetime.end.p0(i64 1, ptr %39) #7
  call void @llvm.lifetime.end.p0(i64 8, ptr %38) #7
  call void @llvm.lifetime.end.p0(i64 8, ptr %37) #7
  call void @llvm.lifetime.end.p0(i64 8, ptr %36) #7
  br label %167

167:                                              ; preds = %166, %105
  call void @llvm.lifetime.end.p0(i64 1, ptr %33) #7
  call void @llvm.lifetime.end.p0(i64 8, ptr %32) #7
  br label %168

168:                                              ; preds = %167, %80
  call void @llvm.lifetime.end.p0(i64 1, ptr %29) #7
  call void @llvm.lifetime.end.p0(i64 8, ptr %28) #7
  call void @llvm.lifetime.end.p0(i64 8, ptr %27) #7
  br label %169

169:                                              ; preds = %168, %53
  call void @llvm.lifetime.end.p0(i64 1, ptr %23) #7
  call void @llvm.lifetime.end.p0(i64 8, ptr %22) #7
  call void @llvm.lifetime.end.p0(i64 8, ptr %21) #7
  call void @llvm.lifetime.end.p0(i64 8, ptr %20) #7
  %170 = load ptr, ptr %10, align 8
  ret ptr %170
}