; Function Attrs: nounwind uwtable
define ptr @l_Lean_Elab_Tactic_BVDecide_Frontend_Normalize_neg__eq__not__add(ptr noundef %0, ptr noundef %1, ptr noundef %2, ptr noundef %3, ptr noundef %4, ptr noundef %5, ptr noundef %6, ptr noundef %7, ptr noundef %8) #0 {
  %10 = load ptr, ptr @l_Lean_Elab_Tactic_BVDecide_Frontend_Normalize_neg__eq__not__add___closed__1, align 8, !tbaa !4
  %11 = load ptr, ptr @l_Lean_Elab_Tactic_BVDecide_Frontend_Normalize_bv__and___lambda__5___closed__1, align 8, !tbaa !4
  %12 = tail call ptr @l_Lean_Expr_cleanupAnnotations(ptr noundef %0) #5
  %13 = tail call zeroext i8 @l_Lean_Expr_isApp(ptr noundef %12) #5
  %14 = icmp eq i8 %13, 0
  br i1 %14, label %15, label %26

15:                                               ; preds = %9
  %16 = ptrtoint ptr %12 to i64
  %17 = and i64 %16, 1
  %.not106 = icmp eq i64 %17, 0
  br i1 %.not106, label %18, label %lean_dec.exit85

18:                                               ; preds = %15
  %19 = load i32, ptr %12, align 4, !tbaa !8
  %20 = icmp sgt i32 %19, 1
  br i1 %20, label %21, label %23, !prof !11

21:                                               ; preds = %18
  %22 = add nsw i32 %19, -1
  store i32 %22, ptr %12, align 4, !tbaa !8
  br label %lean_dec.exit85

23:                                               ; preds = %18
  %.not.i = icmp eq i32 %19, 0
  br i1 %.not.i, label %lean_dec.exit85, label %24

24:                                               ; preds = %23
  tail call void @lean_dec_ref_cold(ptr noundef nonnull %12) #5
  br label %lean_dec.exit85

lean_dec.exit85:                                  ; preds = %24, %23, %21, %15
  %25 = tail call ptr @lean_apply_9(ptr noundef %11, ptr noundef nonnull inttoptr (i64 1 to ptr), ptr noundef %1, ptr noundef %2, ptr noundef %3, ptr noundef %4, ptr noundef %5, ptr noundef %6, ptr noundef %7, ptr noundef %8) #5
  br label %112

26:                                               ; preds = %9
  %27 = tail call ptr @l_Lean_Expr_appArg(ptr noundef %12, ptr noundef nonnull inttoptr (i64 1 to ptr)) #5
  %28 = tail call ptr @l_Lean_Expr_appFnCleanup(ptr noundef %12, ptr noundef nonnull inttoptr (i64 1 to ptr)) #5
  %29 = tail call zeroext i8 @l_Lean_Expr_isApp(ptr noundef %28) #5
  %30 = icmp eq i8 %29, 0
  br i1 %30, label %31, label %51

31:                                               ; preds = %26
  %32 = ptrtoint ptr %28 to i64
  %33 = and i64 %32, 1
  %.not104 = icmp eq i64 %33, 0
  br i1 %.not104, label %34, label %lean_dec.exit84

34:                                               ; preds = %31
  %35 = load i32, ptr %28, align 4, !tbaa !8
  %36 = icmp sgt i32 %35, 1
  br i1 %36, label %37, label %39, !prof !11

37:                                               ; preds = %34
  %38 = add nsw i32 %35, -1
  store i32 %38, ptr %28, align 4, !tbaa !8
  br label %lean_dec.exit84

39:                                               ; preds = %34
  %.not.i86 = icmp eq i32 %35, 0
  br i1 %.not.i86, label %lean_dec.exit84, label %40

40:                                               ; preds = %39
  tail call void @lean_dec_ref_cold(ptr noundef nonnull %28) #5
  br label %lean_dec.exit84

lean_dec.exit84:                                  ; preds = %40, %39, %37, %31
  %41 = ptrtoint ptr %27 to i64
  %42 = and i64 %41, 1
  %.not105 = icmp eq i64 %42, 0
  br i1 %.not105, label %43, label %lean_dec.exit83

43:                                               ; preds = %lean_dec.exit84
  %44 = load i32, ptr %27, align 4, !tbaa !8
  %45 = icmp sgt i32 %44, 1
  br i1 %45, label %46, label %48, !prof !11

46:                                               ; preds = %43
  %47 = add nsw i32 %44, -1
  store i32 %47, ptr %27, align 4, !tbaa !8
  br label %lean_dec.exit83

48:                                               ; preds = %43
  %.not.i88 = icmp eq i32 %44, 0
  br i1 %.not.i88, label %lean_dec.exit83, label %49

49:                                               ; preds = %48
  tail call void @lean_dec_ref_cold(ptr noundef nonnull %27) #5
  br label %lean_dec.exit83

lean_dec.exit83:                                  ; preds = %49, %48, %46, %lean_dec.exit84
  %50 = tail call ptr @lean_apply_9(ptr noundef %11, ptr noundef nonnull inttoptr (i64 1 to ptr), ptr noundef %1, ptr noundef %2, ptr noundef %3, ptr noundef %4, ptr noundef %5, ptr noundef %6, ptr noundef %7, ptr noundef %8) #5
  br label %112

51:                                               ; preds = %26
  %52 = tail call ptr @l_Lean_Expr_appFnCleanup(ptr noundef %28, ptr noundef nonnull inttoptr (i64 1 to ptr)) #5
  %53 = tail call zeroext i8 @l_Lean_Expr_isApp(ptr noundef %52) #5
  %54 = icmp eq i8 %53, 0
  br i1 %54, label %55, label %75

55:                                               ; preds = %51
  %56 = ptrtoint ptr %52 to i64
  %57 = and i64 %56, 1
  %.not102 = icmp eq i64 %57, 0
  br i1 %.not102, label %58, label %lean_dec.exit82

58:                                               ; preds = %55
  %59 = load i32, ptr %52, align 4, !tbaa !8
  %60 = icmp sgt i32 %59, 1
  br i1 %60, label %61, label %63, !prof !11

61:                                               ; preds = %58
  %62 = add nsw i32 %59, -1
  store i32 %62, ptr %52, align 4, !tbaa !8
  br label %lean_dec.exit82

63:                                               ; preds = %58
  %.not.i90 = icmp eq i32 %59, 0
  br i1 %.not.i90, label %lean_dec.exit82, label %64

64:                                               ; preds = %63
  tail call void @lean_dec_ref_cold(ptr noundef nonnull %52) #5
  br label %lean_dec.exit82

lean_dec.exit82:                                  ; preds = %64, %63, %61, %55
  %65 = ptrtoint ptr %27 to i64
  %66 = and i64 %65, 1
  %.not103 = icmp eq i64 %66, 0
  br i1 %.not103, label %67, label %lean_dec.exit81

67:                                               ; preds = %lean_dec.exit82
  %68 = load i32, ptr %27, align 4, !tbaa !8
  %69 = icmp sgt i32 %68, 1
  br i1 %69, label %70, label %72, !prof !11

70:                                               ; preds = %67
  %71 = add nsw i32 %68, -1
  store i32 %71, ptr %27, align 4, !tbaa !8
  br label %lean_dec.exit81

72:                                               ; preds = %67
  %.not.i92 = icmp eq i32 %68, 0
  br i1 %.not.i92, label %lean_dec.exit81, label %73

73:                                               ; preds = %72
  tail call void @lean_dec_ref_cold(ptr noundef nonnull %27) #5
  br label %lean_dec.exit81

lean_dec.exit81:                                  ; preds = %73, %72, %70, %lean_dec.exit82
  %74 = tail call ptr @lean_apply_9(ptr noundef %11, ptr noundef nonnull inttoptr (i64 1 to ptr), ptr noundef %1, ptr noundef %2, ptr noundef %3, ptr noundef %4, ptr noundef %5, ptr noundef %6, ptr noundef %7, ptr noundef %8) #5
  br label %112

75:                                               ; preds = %51
  %76 = tail call ptr @l_Lean_Expr_appArg(ptr noundef %52, ptr noundef nonnull inttoptr (i64 1 to ptr)) #5
  %77 = tail call ptr @l_Lean_Expr_appFnCleanup(ptr noundef %52, ptr noundef nonnull inttoptr (i64 1 to ptr)) #5
  %78 = load ptr, ptr @l_Lean_Elab_Tactic_BVDecide_Frontend_Normalize_neg__eq__not__add___closed__4, align 8, !tbaa !4
  %79 = tail call zeroext i8 @l_Lean_Expr_isConstOf(ptr noundef %77, ptr noundef %78) #5
  %80 = ptrtoint ptr %77 to i64
  %81 = and i64 %80, 1
  %.not = icmp eq i64 %81, 0
  br i1 %.not, label %82, label %lean_dec.exit80

82:                                               ; preds = %75
  %83 = load i32, ptr %77, align 4, !tbaa !8
  %84 = icmp sgt i32 %83, 1
  br i1 %84, label %85, label %87, !prof !11

85:                                               ; preds = %82
  %86 = add nsw i32 %83, -1
  store i32 %86, ptr %77, align 4, !tbaa !8
  br label %lean_dec.exit80

87:                                               ; preds = %82
  %.not.i94 = icmp eq i32 %83, 0
  br i1 %.not.i94, label %lean_dec.exit80, label %88

88:                                               ; preds = %87
  tail call void @lean_dec_ref_cold(ptr noundef nonnull %77) #5
  br label %lean_dec.exit80

lean_dec.exit80:                                  ; preds = %88, %87, %85, %75
  %89 = icmp eq i8 %79, 0
  br i1 %89, label %90, label %110

90:                                               ; preds = %lean_dec.exit80
  %91 = ptrtoint ptr %76 to i64
  %92 = and i64 %91, 1
  %.not100 = icmp eq i64 %92, 0
  br i1 %.not100, label %93, label %lean_dec.exit79

93:                                               ; preds = %90
  %94 = load i32, ptr %76, align 4, !tbaa !8
  %95 = icmp sgt i32 %94, 1
  br i1 %95, label %96, label %98, !prof !11

96:                                               ; preds = %93
  %97 = add nsw i32 %94, -1
  store i32 %97, ptr %76, align 4, !tbaa !8
  br label %lean_dec.exit79

98:                                               ; preds = %93
  %.not.i96 = icmp eq i32 %94, 0
  br i1 %.not.i96, label %lean_dec.exit79, label %99

99:                                               ; preds = %98
  tail call void @lean_dec_ref_cold(ptr noundef nonnull %76) #5
  br label %lean_dec.exit79

lean_dec.exit79:                                  ; preds = %99, %98, %96, %90
  %100 = ptrtoint ptr %27 to i64
  %101 = and i64 %100, 1
  %.not101 = icmp eq i64 %101, 0
  br i1 %.not101, label %102, label %lean_dec.exit

102:                                              ; preds = %lean_dec.exit79
  %103 = load i32, ptr %27, align 4, !tbaa !8
  %104 = icmp sgt i32 %103, 1
  br i1 %104, label %105, label %107, !prof !11

105:                                              ; preds = %102
  %106 = add nsw i32 %103, -1
  store i32 %106, ptr %27, align 4, !tbaa !8
  br label %lean_dec.exit

107:                                              ; preds = %102
  %.not.i98 = icmp eq i32 %103, 0
  br i1 %.not.i98, label %lean_dec.exit, label %108

108:                                              ; preds = %107
  tail call void @lean_dec_ref_cold(ptr noundef nonnull %27) #5
  br label %lean_dec.exit

lean_dec.exit:                                    ; preds = %108, %107, %105, %lean_dec.exit79
  %109 = tail call ptr @lean_apply_9(ptr noundef %11, ptr noundef nonnull inttoptr (i64 1 to ptr), ptr noundef %1, ptr noundef %2, ptr noundef %3, ptr noundef %4, ptr noundef %5, ptr noundef %6, ptr noundef %7, ptr noundef %8) #5
  br label %112

110:                                              ; preds = %lean_dec.exit80
  %111 = tail call ptr @lean_apply_10(ptr noundef %10, ptr noundef %76, ptr noundef %27, ptr noundef %1, ptr noundef %2, ptr noundef %3, ptr noundef %4, ptr noundef %5, ptr noundef %6, ptr noundef %7, ptr noundef %8) #5
  br label %112

112:                                              ; preds = %lean_dec.exit83, %lean_dec.exit, %110, %lean_dec.exit81, %lean_dec.exit85
  %.0 = phi ptr [ %25, %lean_dec.exit85 ], [ %50, %lean_dec.exit83 ], [ %74, %lean_dec.exit81 ], [ %109, %lean_dec.exit ], [ %111, %110 ]
  ret ptr %.0
}